target datalayout = "e-m:e-p270:32:32-p271:32:32-p272:64:64-i64:64-i128:128-f80:128-n8:16:32:64-S128"
target triple = "x86_64-pc-linux-gnu"

%struct.PyMemAllocatorEx = type { ptr, ptr, ptr, ptr, ptr }
%struct.PyWideStringList = type { i64, ptr }
%struct.PyConfig = type { i32, i32, i32, i32, i32, i32, i64, i32, i32, i32, i32, i32, i32, i32, ptr, i32, ptr, ptr, ptr, i32, %struct.PyWideStringList, %struct.PyWideStringList, %struct.PyWideStringList, %struct.PyWideStringList, i32, i32, i32, i32, i32, i32, i32, i32, i32, i32, i32, i32, i32, ptr, ptr, ptr, i32, i32, i32, i32, i32, ptr, ptr, ptr, ptr, i32, %struct.PyWideStringList, ptr, ptr, ptr, ptr, ptr, ptr, ptr, i32, ptr, ptr, ptr, ptr, i32, i32, i32 }
%struct.PyStatus = type { i32, ptr, ptr, i32 }
%struct._preinit_entry = type { ptr, ptr }

@_preinit_xoptions = internal global ptr null, align 8

; Function Attrs: nounwind uwtable
define internal void @_clear_preinit_entries(ptr noundef %0) #0 {
  %2 = alloca ptr, align 8
  %3 = alloca ptr, align 8
  %4 = alloca %struct.PyMemAllocatorEx, align 8
  %5 = alloca ptr, align 8
  store ptr %0, ptr %2, align 8, !tbaa !229
  call void @llvm.lifetime.start.p0(i64 8, ptr %3) #12
  %6 = load ptr, ptr %2, align 8, !tbaa !229
  %7 = load ptr, ptr %6, align 8, !tbaa !220
  store ptr %7, ptr %3, align 8, !tbaa !220
  %8 = load ptr, ptr %2, align 8, !tbaa !229
  store ptr null, ptr %8, align 8, !tbaa !220
  call void @llvm.lifetime.start.p0(i64 40, ptr %4) #12
  %9 = call i32 @_PyMem_SetDefaultAllocator(i32 noundef 0, ptr noundef %4)
  br label %10

10:                                               ; preds = %13, %1
  %11 = load ptr, ptr %3, align 8, !tbaa !220
  %12 = icmp ne ptr %11, null
  br i1 %12, label %13, label %22

13:                                               ; preds = %10
  call void @llvm.lifetime.start.p0(i64 8, ptr %5) #12
  %14 = load ptr, ptr %3, align 8, !tbaa !220
  %15 = getelementptr inbounds nuw %struct._preinit_entry, ptr %14, i32 0, i32 1
  %16 = load ptr, ptr %15, align 8, !tbaa !227
  store ptr %16, ptr %5, align 8, !tbaa !220
  %17 = load ptr, ptr %3, align 8, !tbaa !220
  %18 = getelementptr inbounds nuw %struct._preinit_entry, ptr %17, i32 0, i32 0
  %19 = load ptr, ptr %18, align 8, !tbaa !222
  call void @PyMem_RawFree(ptr noundef %19)
  %20 = load ptr, ptr %3, align 8, !tbaa !220
  call void @PyMem_RawFree(ptr noundef %20)
  %21 = load ptr, ptr %5, align 8, !tbaa !220
  store ptr %21, ptr %3, align 8, !tbaa !220
  call void @llvm.lifetime.end.p0(i64 8, ptr %5) #12
  br label %10, !llvm.loop !231

22:                                               ; preds = %10
  call void @PyMem_SetAllocator(i32 noundef 0, ptr noundef %4)
  call void @llvm.lifetime.end.p0(i64 40, ptr %4) #12
  call void @llvm.lifetime.end.p0(i64 8, ptr %3) #12
  ret void
}

; Function Attrs: nounwind uwtable
define hidden void @_PySys_ReadPreinitXOptions(ptr dead_on_unwind noalias writable sret(%struct.PyStatus) align 8 %0, ptr noundef %1) #0 {
  %3 = alloca ptr, align 8
  %4 = alloca %struct.PyStatus, align 8
  %5 = alloca ptr, align 8
  %6 = alloca %struct.PyStatus, align 8
  %7 = alloca i32, align 4
  store ptr %1, ptr %3, align 8, !tbaa !208
  call void @llvm.lifetime.start.p0(i64 32, ptr %4) #12
  call void @llvm.lifetime.start.p0(i64 8, ptr %5) #12
  %8 = load ptr, ptr @_preinit_xoptions, align 8, !tbaa !220
  store ptr %8, ptr %5, align 8, !tbaa !220
  br label %9

9:                                                ; preds = %23, %2
  %10 = load ptr, ptr %5, align 8, !tbaa !220
  %11 = icmp ne ptr %10, null
  br i1 %11, label %12, label %27

12:                                               ; preds = %9
  call void @llvm.lifetime.start.p0(i64 32, ptr %6) #12
  %13 = load ptr, ptr %3, align 8, !tbaa !208
  %14 = getelementptr inbounds nuw %struct.PyConfig, ptr %13, i32 0, i32 22
  %15 = load ptr, ptr %5, align 8, !tbaa !220
  %16 = getelementptr inbounds nuw %struct._preinit_entry, ptr %15, i32 0, i32 0
  %17 = load ptr, ptr %16, align 8, !tbaa !222
  call void @PyWideStringList_Append(ptr dead_on_unwind writable sret(%struct.PyStatus) align 8 %6, ptr noundef %14, ptr noundef %17)
  call void @llvm.memcpy.p0.p0.i64(ptr align 8 %4, ptr align 8 %6, i64 32, i1 false), !tbaa.struct !224
  call void @llvm.lifetime.end.p0(i64 32, ptr %6) #12
  %18 = getelementptr inbounds nuw %struct.PyStatus, ptr %4, i32 0, i32 0
  %19 = load i32, ptr %18, align 8, !tbaa !225
  %20 = icmp ne i32 %19, 0
  br i1 %20, label %21, label %22

21:                                               ; preds = %12
  call void @llvm.memcpy.p0.p0.i64(ptr align 8 %0, ptr align 8 %4, i64 32, i1 false), !tbaa.struct !224
  store i32 1, ptr %7, align 4
  br label %29

22:                                               ; preds = %12
  br label %23

23:                                               ; preds = %22
  %24 = load ptr, ptr %5, align 8, !tbaa !220
  %25 = getelementptr inbounds nuw %struct._preinit_entry, ptr %24, i32 0, i32 1
  %26 = load ptr, ptr %25, align 8, !tbaa !227
  store ptr %26, ptr %5, align 8, !tbaa !220
  br label %9, !llvm.loop !232

27:                                               ; preds = %9
  call void @_clear_preinit_entries(ptr noundef @_preinit_xoptions)
  call void @llvm.memset.p0.i64(ptr align 8 %0, i8 0, i64 32, i1 false)
  %28 = getelementptr inbounds nuw %struct.PyStatus, ptr %0, i32 0, i32 0
  store i32 0, ptr %28, align 8, !tbaa !225
  store i32 1, ptr %7, align 4
  br label %29

29:                                               ; preds = %27, %21
  call void @llvm.lifetime.end.p0(i64 8, ptr %5) #12
  call void @llvm.lifetime.end.p0(i64 32, ptr %4) #12
  ret void
}