; Function Attrs: nounwind uwtable
define hidden void @_PySys_ReadPreinitXOptions(ptr dead_on_unwind noalias writable writeonly sret(%struct.PyStatus) align 8 captures(none) %0, ptr noundef %1) local_unnamed_addr #0 {
  %3 = alloca %struct.PyMemAllocatorEx, align 8
  %.sroa.5 = alloca [28 x i8], align 4
  %4 = alloca %struct.PyStatus, align 8
  call void @llvm.lifetime.start.p0(i64 28, ptr nonnull %.sroa.5)
  %.07 = load ptr, ptr @_preinit_xoptions, align 8, !tbaa !206
  %.not8 = icmp eq ptr %.07, null
  br i1 %.not8, label %._crit_edge.thread, label %.lr.ph

._crit_edge.thread:                               ; preds = %2
  call void @llvm.lifetime.start.p0(i64 40, ptr nonnull %3) #15
  %5 = call i32 @_PyMem_SetDefaultAllocator(i32 noundef 0, ptr noundef nonnull %3) #15
  br label %_clear_preinit_entries.exit

.lr.ph:                                           ; preds = %2
  %6 = getelementptr inbounds nuw i8, ptr %1, i64 144
  %.sroa.5.0..sroa_idx = getelementptr inbounds nuw i8, ptr %4, i64 4
  br label %9

7:                                                ; preds = %9
  %8 = getelementptr inbounds nuw i8, ptr %.09, i64 8
  %.0 = load ptr, ptr %8, align 8, !tbaa !206
  %.not = icmp eq ptr %.0, null
  br i1 %.not, label %._crit_edge, label %9, !llvm.loop !216

9:                                                ; preds = %.lr.ph, %7
  %.09 = phi ptr [ %.07, %.lr.ph ], [ %.0, %7 ]
  call void @llvm.lifetime.start.p0(i64 32, ptr nonnull %4) #15
  %10 = load ptr, ptr %.09, align 8, !tbaa !209
  call void @PyWideStringList_Append(ptr dead_on_unwind nonnull writable sret(%struct.PyStatus) align 8 %4, ptr noundef nonnull %6, ptr noundef %10) #15
  %.sroa.0.0.copyload = load i32, ptr %4, align 8, !tbaa !211
  call void @llvm.memcpy.p0.p0.i64(ptr noundef nonnull align 4 dereferenceable(28) %.sroa.5, ptr noundef nonnull align 4 dereferenceable(28) %.sroa.5.0..sroa_idx, i64 28, i1 false), !tbaa.struct !212
  call void @llvm.lifetime.end.p0(i64 32, ptr nonnull %4) #15
  %.not6 = icmp eq i32 %.sroa.0.0.copyload, 0
  br i1 %.not6, label %7, label %11

11:                                               ; preds = %9
  store i32 %.sroa.0.0.copyload, ptr %0, align 8, !tbaa !211
  %.sroa.5.0..sroa_idx4 = getelementptr inbounds nuw i8, ptr %0, i64 4
  call void @llvm.memcpy.p0.p0.i64(ptr noundef nonnull align 4 dereferenceable(28) %.sroa.5.0..sroa_idx4, ptr noundef nonnull align 4 dereferenceable(28) %.sroa.5, i64 28, i1 false), !tbaa.struct !212
  br label %16

._crit_edge:                                      ; preds = %7
  %.pre = load ptr, ptr @_preinit_xoptions, align 8, !tbaa !206
  store ptr null, ptr @_preinit_xoptions, align 8, !tbaa !206
  call void @llvm.lifetime.start.p0(i64 40, ptr nonnull %3) #15
  %12 = call i32 @_PyMem_SetDefaultAllocator(i32 noundef 0, ptr noundef nonnull %3) #15
  %.not7.i = icmp eq ptr %.pre, null
  br i1 %.not7.i, label %_clear_preinit_entries.exit, label %.lr.ph.i

.lr.ph.i:                                         ; preds = %._crit_edge, %.lr.ph.i
  %.08.i = phi ptr [ %14, %.lr.ph.i ], [ %.pre, %._crit_edge ]
  %13 = getelementptr inbounds nuw i8, ptr %.08.i, i64 8
  %14 = load ptr, ptr %13, align 8, !tbaa !214
  %15 = load ptr, ptr %.08.i, align 8, !tbaa !209
  call void @PyMem_RawFree(ptr noundef %15) #15
  call void @PyMem_RawFree(ptr noundef nonnull %.08.i) #15
  %.not.i = icmp eq ptr %14, null
  br i1 %.not.i, label %_clear_preinit_entries.exit, label %.lr.ph.i, !llvm.loop !215

_clear_preinit_entries.exit:                      ; preds = %.lr.ph.i, %._crit_edge.thread, %._crit_edge
  call void @PyMem_SetAllocator(i32 noundef 0, ptr noundef nonnull %3) #15
  call void @llvm.lifetime.end.p0(i64 40, ptr nonnull %3) #15
  call void @llvm.memset.p0.i64(ptr noundef nonnull align 8 dereferenceable(32) %0, i8 0, i64 32, i1 false)
  br label %16

16:                                               ; preds = %_clear_preinit_entries.exit, %11
  call void @llvm.lifetime.end.p0(i64 28, ptr nonnull %.sroa.5)
  ret void
}